; ModuleID = '19/2689.c'
source_filename = "19/2689.c"
target datalayout = "e-m:e-p270:32:32-p271:32:32-p272:64:64-i64:64-f80:128-n8:16:32:64-S128"
target triple = "x86_64-pc-linux-gnu"

@sen = common dso_local global [200 x i8] zeroinitializer, align 16
@m = common dso_local global [200 x i8] zeroinitializer, align 16
@c = common dso_local global [200 x i8] zeroinitializer, align 16
@check = common dso_local global [200 x i8] zeroinitializer, align 16
@.str = private unnamed_addr constant [4 x i8] c"%s \00", align 1
@.str.1 = private unnamed_addr constant [4 x i8] c"%s\0A\00", align 1

; Function Attrs: noinline nounwind uwtable
define dso_local i32 @main() #0 {
  %1 = alloca i32, align 4
  %2 = alloca i32, align 4
  %3 = alloca i32, align 4
  store i32 0, i32* %1, align 4
  %4 = call i32 (i8*, ...) bitcast (i32 (...)* @gets to i32 (i8*, ...)*)(i8* getelementptr inbounds ([200 x i8], [200 x i8]* @sen, i64 0, i64 0))
  %5 = call i32 (i8*, ...) bitcast (i32 (...)* @gets to i32 (i8*, ...)*)(i8* getelementptr inbounds ([200 x i8], [200 x i8]* @m, i64 0, i64 0))
  %6 = call i32 (i8*, ...) bitcast (i32 (...)* @gets to i32 (i8*, ...)*)(i8* getelementptr inbounds ([200 x i8], [200 x i8]* @c, i64 0, i64 0))
  store i32 0, i32* %2, align 4
  store i32 0, i32* %3, align 4
  br label %7

7:                                                ; preds = %38, %0
  %8 = load i32, i32* %3, align 4
  %9 = sext i32 %8 to i64
  %10 = call i64 @strlen(i8* getelementptr inbounds ([200 x i8], [200 x i8]* @sen, i64 0, i64 0)) #4
  %11 = icmp ult i64 %9, %10
  br i1 %11, label %12, label %41

12:                                               ; preds = %7
  %13 = load i32, i32* %3, align 4
  %14 = sext i32 %13 to i64
  %15 = getelementptr inbounds [200 x i8], [200 x i8]* @sen, i64 0, i64 %14
  %16 = load i8, i8* %15, align 1
  %17 = sext i8 %16 to i32
  %18 = icmp ne i32 %17, 32
  br i1 %18, label %19, label %29

19:                                               ; preds = %12
  %20 = load i32, i32* %3, align 4
  %21 = sext i32 %20 to i64
  %22 = getelementptr inbounds [200 x i8], [200 x i8]* @sen, i64 0, i64 %21
  %23 = load i8, i8* %22, align 1
  %24 = load i32, i32* %2, align 4
  %25 = sext i32 %24 to i64
  %26 = getelementptr inbounds [200 x i8], [200 x i8]* @check, i64 0, i64 %25
  store i8 %23, i8* %26, align 1
  %27 = load i32, i32* %2, align 4
  %28 = add nsw i32 %27, 1
  store i32 %28, i32* %2, align 4
  br label %37

29:                                               ; preds = %12
  %30 = call i32 @strcmp(i8* getelementptr inbounds ([200 x i8], [200 x i8]* @check, i64 0, i64 0), i8* getelementptr inbounds ([200 x i8], [200 x i8]* @m, i64 0, i64 0)) #4
  %31 = icmp ne i32 %30, 0
  br i1 %31, label %34, label %32

32:                                               ; preds = %29
  %33 = call i32 (i8*, ...) @printf(i8* getelementptr inbounds ([4 x i8], [4 x i8]* @.str, i64 0, i64 0), i8* getelementptr inbounds ([200 x i8], [200 x i8]* @c, i64 0, i64 0))
  br label %36

34:                                               ; preds = %29
  %35 = call i32 (i8*, ...) @printf(i8* getelementptr inbounds ([4 x i8], [4 x i8]* @.str, i64 0, i64 0), i8* getelementptr inbounds ([200 x i8], [200 x i8]* @check, i64 0, i64 0))
  br label %36

36:                                               ; preds = %34, %32
  call void @llvm.memset.p0i8.i64(i8* align 16 getelementptr inbounds ([200 x i8], [200 x i8]* @check, i64 0, i64 0), i8 0, i64 200, i1 false)
  store i32 0, i32* %2, align 4
  br label %37

37:                                               ; preds = %36, %19
  br label %38

38:                                               ; preds = %37
  %39 = load i32, i32* %3, align 4
  %40 = add nsw i32 %39, 1
  store i32 %40, i32* %3, align 4
  br label %7

41:                                               ; preds = %7
  %42 = call i32 @strcmp(i8* getelementptr inbounds ([200 x i8], [200 x i8]* @check, i64 0, i64 0), i8* getelementptr inbounds ([200 x i8], [200 x i8]* @m, i64 0, i64 0)) #4
  %43 = icmp ne i32 %42, 0
  br i1 %43, label %46, label %44

44:                                               ; preds = %41
  %45 = call i32 (i8*, ...) @printf(i8* getelementptr inbounds ([4 x i8], [4 x i8]* @.str.1, i64 0, i64 0), i8* getelementptr inbounds ([200 x i8], [200 x i8]* @c, i64 0, i64 0))
  br label %48

46:                                               ; preds = %41
  %47 = call i32 (i8*, ...) @printf(i8* getelementptr inbounds ([4 x i8], [4 x i8]* @.str.1, i64 0, i64 0), i8* getelementptr inbounds ([200 x i8], [200 x i8]* @check, i64 0, i64 0))
  br label %48

48:                                               ; preds = %46, %44
  ret i32 0
}

declare dso_local i32 @gets(...) #1

; Function Attrs: nounwind readonly
declare dso_local i64 @strlen(i8*) #2

; Function Attrs: nounwind readonly
declare dso_local i32 @strcmp(i8*, i8*) #2

declare dso_local i32 @printf(i8*, ...) #1

; Function Attrs: argmemonly nounwind willreturn
declare void @llvm.memset.p0i8.i64(i8* nocapture writeonly, i8, i64, i1 immarg) #3


!llvm.module.flags = !{!0}
!llvm.ident = !{!1}

!0 = !{i32 1, !"wchar_size", i32 4}
!1 = !{!"clang version 10.0.0-4ubuntu1 "}
